(lp0
S'Fluxbox'
p1
aS'no'
p2
ag2
ag2
aS'<denu-home>/.fluxbox/menu'
p3
aS'[exec] (<denu-name>) {<denu-command>}\n'
p4
aS'[submenu] (<denu-name>)\n'
p5
aS'[end]\n'
p6
aS'[begin] (<denu-mname>)\n'
p7
aS'[end]'
p8
a.