(lp1
S'Fluxbox'
p2
aS'no'
p3
aS'yes'
p4
ag3
aS'<denu-home>/.fluxbox/menu'
p5
aS'[exec] (<denu-name>) {<denu-command>}<denu-icon-string>\n'
p6
aS'[submenu] (<denu-name>)<denu-icon-string>\n'
p7
aS'[end]\n'
p8
aS'[begin] (<denu-mname>)\n'
p9
aS'[end]'
p10
aS' <<denu-icon-full>>'
p11
a.
