(lp0
S'Gnome'
p1
aS'yes'
p2
ag2
aS'no'
p3
aS'<denu-home>/.gnome2/vfolders/applications.vfolder-info'
p4
aS'<Include><denu-dt-full></Include>\n'
p5
aS'<Folder>\n<Name><denu-name></Name>\n<Desktop><denu-di-full></Desktop>\n'
p6
aS'</Folder>\n'
p7
aS'<?xml version="1.0"?>\n<VFolderInfo>\n<WriteDir><denu-home>/.gnome2/vfolders/applications</WriteDir><Folder><Name>Root</Name>'
p8
aS'</Folder>\n</VFolderInfo>'
p9
a.