(lp1
S'IceWM'
p2
aS'no'
p3
aS'yes'
p4
ag3
aS'<denu-home>/.icewm/menu'
p5
aS'prog "<denu-name>" "<denu-icon-string>" <denu-command>\n'
p6
aS'menu <denu-name> "<denu-icon-string>" {\n'
p7
aS'}\n'
p8
aS''
aS''
aS'<denu-icon-full>'
p9
a.