(lp1
S'Openbox'
p2
aS'no'
p3
ag3
ag3
aS'<denu-home>/.config/openbox/menu.xml'
p4
aS'<item label="<denu-name>">\n<action name="Execute"><execute><denu-command></execute></action>\n</item>\n'
p5
aS'<menu id="<denu-name>" label="<denu-name>">'
p6
aS'</menu>\n'
p7
aS'<openbox_menu><menu id="root-menu" label="<denu-mname>">\n'
p8
aS'</menu></openbox_menu>'
p9
a.