(lp1
S'Waimea'
p2
aS'no'
p3
aS'yes'
p4
ag4
aS'<denu-home>/.waimea/menus/menu.conf'
p5
aS'<item name="item" string="<denu-name>" function="exec" parameter="<denu-command>"<denu-icon-string>/>\n'
p6
aS'<item name="sub" string="<denu-name>"<denu-icon-string>><menu><item name="title" string="<denu-name>"/>\n'
p7
aS'</menu>\n</item>'
p8
aS''
aS''
aS' image="<denu-icon-full>"'
p9
a.
