(lp1
S'Xfce4'
p2
aS'no'
p3
aS'yes'
p4
ag4
aS'<denu-home>/.config/xfce4/desktop/menu.xml'
p5
aS'<app name="<denu-name>" visible="true" cmd="<denu-command>"<denu-icon-string>/>\n'
p6
aS'<menu name="<denu-name>" visible="true"<denu-icon-string>>\n'
p7
aS'</menu>'
p8
aS''
aS''
aS' icon="<denu-icon-full>"'
p9
a.